Certificate:
    Data:
        Version: 3 (0x2)
        Serial Number:
            07:ca:c7:21:14:87:ff:ad:10:07:7f:e3:da:28:4f:19:ce:84:d1:5c
        Signature Algorithm: sha256WithRSAEncryption
        Issuer: C=CH, O=HEIG-VD, CN=HEIG-VDRoot
        Validity
            Not Before: Jun 14 11:01:52 2024 GMT
            Not After : Jun 14 11:01:52 2034 GMT
        Subject: C=CH, O=HEIG-VD, CN=Harun-TLS
        Subject Public Key Info:
            Public Key Algorithm: rsaEncryption
                Public-Key: (4096 bit)
                Modulus:
                    00:96:e5:d4:e8:92:e7:76:31:3d:57:37:c0:ea:7e:
                    47:a1:c1:26:b8:0d:15:c1:e6:18:6d:e2:e8:36:2a:
                    fc:8c:12:a5:f3:b8:fd:c4:e0:75:02:89:17:66:41:
                    9c:3d:f5:8d:33:fa:30:e4:df:9c:65:ed:e0:cb:75:
                    a9:3d:16:19:2a:58:b4:9a:13:d8:aa:c1:9b:29:3d:
                    fb:fa:d8:96:d8:97:77:86:d6:1d:a6:a4:6b:c2:be:
                    12:57:46:14:bb:4f:ce:fd:51:9d:5a:32:87:50:0e:
                    9b:86:5b:65:b1:e0:99:82:ea:85:fe:4f:03:08:24:
                    c1:b2:6f:22:31:08:f0:d5:b5:30:26:3a:9a:b4:b8:
                    28:0d:6b:8f:d1:ce:c3:ab:74:77:44:e2:e1:28:8a:
                    0b:88:e6:4d:4a:de:34:a1:90:07:48:b3:70:8a:47:
                    75:34:15:73:ce:3a:6d:d4:6b:36:5d:d1:2d:5c:8c:
                    ac:fc:0c:b3:08:b4:ba:9c:71:8f:17:d0:5d:cc:eb:
                    92:40:c3:c8:30:40:bf:b4:b4:00:4d:b4:1e:c3:da:
                    9e:09:83:93:74:a5:df:48:a4:40:9b:a5:58:45:00:
                    c0:dd:8c:cb:0b:cc:1c:db:04:bf:eb:89:2e:d6:11:
                    72:c0:88:52:ad:43:e7:11:c4:f9:69:7c:fe:a8:c4:
                    8e:51:54:7f:88:14:b6:80:2f:f0:00:97:6e:24:d9:
                    9c:7f:6c:95:8b:e3:4d:a0:09:b1:f6:7b:60:1b:2c:
                    b2:a4:a6:84:40:a0:18:e4:d5:bf:f8:98:ee:c6:f2:
                    e8:cf:46:07:bc:a7:64:eb:a2:1f:c8:1e:b5:6c:6d:
                    3f:a9:eb:e4:02:a7:84:c1:04:a4:a5:c7:13:f9:dc:
                    d3:3c:0c:c4:2b:86:d1:8a:c1:a9:ff:01:f6:49:84:
                    89:e0:f9:b9:10:34:21:8a:d3:70:f6:01:f9:67:bd:
                    f4:99:39:96:2f:d7:2e:d9:07:62:be:4e:72:73:68:
                    cf:2f:88:e5:7c:f7:40:20:e0:c0:7c:3a:01:de:6c:
                    47:d0:0a:8a:5b:2a:fe:2a:88:64:86:a7:84:67:1d:
                    81:da:02:88:cc:41:47:33:1c:db:4c:3e:1a:f7:5f:
                    5b:e1:09:d0:50:29:38:71:fa:5a:f7:80:3f:fd:bc:
                    99:a5:9d:df:71:12:f8:54:ad:7c:bf:f3:25:d1:b2:
                    96:a2:8a:70:4b:41:f6:f6:d2:90:44:94:77:ec:f5:
                    c4:e1:3d:83:c7:9e:46:d8:35:78:01:22:ea:11:53:
                    c7:ac:5b:fd:1e:f7:05:14:87:17:80:dd:e7:53:89:
                    6b:0f:aa:e4:ce:d7:15:06:aa:eb:1b:c0:6f:ba:78:
                    5a:6e:6f
                Exponent: 65537 (0x10001)
        X509v3 extensions:
            X509v3 Key Usage: critical
                Certificate Sign, CRL Sign
            X509v3 Basic Constraints: critical
                CA:TRUE, pathlen:0
            X509v3 Subject Key Identifier: 
                D7:48:6A:FF:F3:17:CE:36:8D:5F:BB:36:EA:75:21:00:B5:47:49:15
            X509v3 Authority Key Identifier: 
                3B:D0:A5:0C:62:70:E5:F4:B4:04:20:46:55:E8:EB:57:19:89:3E:E4
    Signature Algorithm: sha256WithRSAEncryption
    Signature Value:
        56:cf:07:49:2a:b6:5e:54:bc:aa:09:2d:82:72:8c:8d:f7:28:
        4c:61:06:87:fc:5c:f7:70:34:4a:ed:64:94:9d:74:50:e4:b5:
        27:3a:18:05:86:31:cb:10:68:80:59:56:61:30:09:de:6f:b6:
        f1:bf:0e:36:29:f8:46:ca:ab:3f:9e:3d:de:6a:d4:35:5b:96:
        e4:19:bf:7c:62:af:e9:92:88:e9:7f:e9:53:dc:51:52:43:d5:
        be:51:9c:7c:aa:79:df:4e:df:ce:2c:2c:2a:84:fd:61:84:16:
        07:b2:0c:f8:80:8c:77:b6:14:5f:b1:11:29:ba:58:e9:b6:b2:
        e8:00:6e:f6:5c:56:10:89:37:53:61:aa:91:0c:72:f1:b4:72:
        f5:1b:85:cb:a2:ed:de:36:a7:d4:3a:d3:7d:41:b6:4e:36:26:
        01:33:15:ec:b6:a9:bf:71:5c:fe:a0:83:a3:d3:6f:d0:a2:0d:
        66:81:61:18:a3:1b:5a:76:f0:d3:c5:d4:da:8b:8a:a9:41:63:
        96:b1:84:89:2d:e2:92:24:64:d9:ef:96:c9:1a:f6:45:a5:ce:
        af:eb:9f:3e:3d:af:30:c2:5b:bf:54:e2:71:c5:11:39:fd:ec:
        ed:bb:19:dc:be:04:31:48:ff:81:a7:16:0b:97:3e:2a:b1:ef:
        41:2d:00:34
-----BEGIN CERTIFICATE-----
MIIEXDCCA0SgAwIBAgIUB8rHIRSH/60QB3/j2ihPGc6E0VwwDQYJKoZIhvcNAQEL
BQAwNTELMAkGA1UEBhMCQ0gxEDAOBgNVBAoMB0hFSUctVkQxFDASBgNVBAMMC0hF
SUctVkRSb290MB4XDTI0MDYxNDExMDE1MloXDTM0MDYxNDExMDE1MlowMzELMAkG
A1UEBhMCQ0gxEDAOBgNVBAoMB0hFSUctVkQxEjAQBgNVBAMMCUhhcnVuLVRMUzCC
AiIwDQYJKoZIhvcNAQEBBQADggIPADCCAgoCggIBAJbl1OiS53YxPVc3wOp+R6HB
JrgNFcHmGG3i6DYq/IwSpfO4/cTgdQKJF2ZBnD31jTP6MOTfnGXt4Mt1qT0WGSpY
tJoT2KrBmyk9+/rYltiXd4bWHaaka8K+EldGFLtPzv1RnVoyh1AOm4ZbZbHgmYLq
hf5PAwgkwbJvIjEI8NW1MCY6mrS4KA1rj9HOw6t0d0Ti4SiKC4jmTUreNKGQB0iz
cIpHdTQVc846bdRrNl3RLVyMrPwMswi0upxxjxfQXczrkkDDyDBAv7S0AE20HsPa
ngmDk3Sl30ikQJulWEUAwN2MywvMHNsEv+uJLtYRcsCIUq1D5xHE+Wl8/qjEjlFU
f4gUtoAv8ACXbiTZnH9slYvjTaAJsfZ7YBsssqSmhECgGOTVv/iY7sby6M9GB7yn
ZOuiH8getWxtP6nr5AKnhMEEpKXHE/nc0zwMxCuG0YrBqf8B9kmEieD5uRA0IYrT
cPYB+We99Jk5li/XLtkHYr5OcnNozy+I5Xz3QCDgwHw6Ad5sR9AKilsq/iqIZIan
hGcdgdoCiMxBRzMc20w+GvdfW+EJ0FApOHH6WveAP/28maWd33ES+FStfL/zJdGy
lqKKcEtB9vbSkESUd+z1xOE9g8eeRtg1eAEi6hFTx6xb/R73BRSHF4Dd51OJaw+q
5M7XFQaq6xvAb7p4Wm5vAgMBAAGjZjBkMA4GA1UdDwEB/wQEAwIBBjASBgNVHRMB
Af8ECDAGAQH/AgEAMB0GA1UdDgQWBBTXSGr/8xfONo1fuzbqdSEAtUdJFTAfBgNV
HSMEGDAWgBQ70KUMYnDl9LQEIEZV6OtXGYk+5DANBgkqhkiG9w0BAQsFAAOCAQEA
Vs8HSSq2XlS8qgktgnKMjfcoTGEGh/xc93A0Su1klJ10UOS1JzoYBYYxyxBogFlW
YTAJ3m+28b8ONin4RsqrP5493mrUNVuW5Bm/fGKv6ZKI6X/pU9xRUkPVvlGcfKp5
307fziwsKoT9YYQWB7IM+ICMd7YUX7ERKbpY6bay6ABu9lxWEIk3U2GqkQxy8bRy
9RuFy6Lt3jan1DrTfUG2TjYmATMV7Lapv3Fc/qCDo9Nv0KINZoFhGKMbWnbw08XU
2ouKqUFjlrGEiS3ikiRk2e+WyRr2RaXOr+ufPj2vMMJbv1TiccUROf3s7bsZ3L4E
MUj/gacWC5c+KrHvQS0ANA==
-----END CERTIFICATE-----
