Certificate:
    Data:
        Version: 3 (0x2)
        Serial Number:
            74:50:fd:15:da:aa:aa:a1:e6:29:27:96:04:fd:8c:91:80:65:fd:2c
        Signature Algorithm: sha256WithRSAEncryption
        Issuer: C=CH, O=HEIG-VD, CN=Harun-TLS
        Validity
            Not Before: Jun 14 12:58:54 2024 GMT
            Not After : Jul 14 12:58:54 2025 GMT
        Subject: C=CH, O=HEIG-VD, CN=IP
        Subject Public Key Info:
            Public Key Algorithm: rsaEncryption
                Public-Key: (4096 bit)
                Modulus:
                    00:ba:93:7b:e8:af:63:d6:c0:86:93:46:9d:77:7c:
                    29:91:8b:e0:8b:8e:75:66:9f:9e:68:d1:05:69:04:
                    10:ee:87:6a:11:b7:ae:cf:e5:05:40:9f:0c:c2:41:
                    e8:e5:e0:3c:e4:b1:e0:65:00:c1:a4:81:6f:0f:df:
                    78:59:fd:68:cc:98:ab:a3:75:a3:01:a8:44:0b:74:
                    88:80:41:26:13:a4:91:ba:3a:13:83:01:99:1f:f9:
                    c6:26:26:55:9f:8b:da:73:6d:6b:b9:66:79:d4:fa:
                    ec:ed:61:00:44:24:ee:c8:ef:9c:1d:bb:3d:14:01:
                    ba:20:05:a7:4f:b6:2f:f8:20:dd:02:26:f6:6a:5d:
                    12:b9:82:83:99:d7:6b:b4:43:76:88:6b:6f:c6:cf:
                    79:02:1d:d5:a2:a4:4c:a1:f2:4b:4d:8b:33:a3:af:
                    0c:33:e2:ec:49:26:19:36:13:ed:f1:5a:9f:74:71:
                    71:e9:c2:5a:b0:1c:dd:d0:cd:9d:ab:f5:fe:5e:0b:
                    fc:fa:15:31:86:06:82:0c:10:3c:aa:f0:56:91:d5:
                    ef:f4:2f:4b:02:30:2f:95:8a:96:d9:28:a2:24:f3:
                    0c:38:22:09:9d:a1:21:bb:72:5d:cf:3d:f2:e6:e2:
                    75:0b:bf:b4:8a:aa:86:9a:a0:7b:63:71:f5:c3:15:
                    b0:1e:a9:f2:46:2f:93:95:5b:e6:fc:2b:c7:25:9d:
                    bb:bb:77:db:a8:94:1c:fe:04:ce:33:53:02:7c:98:
                    e6:5c:fd:cc:56:68:46:bb:cf:d1:17:3d:ad:88:8f:
                    aa:57:48:69:23:94:b0:2f:a0:f2:a9:f1:4e:84:c5:
                    fa:dc:0f:0b:91:35:02:8a:18:d1:e6:08:17:f6:35:
                    73:38:91:8f:55:36:c3:21:a0:a8:4d:38:dc:ac:d5:
                    67:a9:ee:9b:25:b6:46:06:f4:5d:dc:1a:04:26:98:
                    cb:e6:59:cb:4b:89:88:f0:6f:fa:1e:c0:fa:10:56:
                    22:c8:78:3a:fc:a9:64:6e:62:4c:be:33:9b:b8:77:
                    df:5e:c2:d6:64:2c:a3:b8:3d:54:b5:52:4f:5c:69:
                    6a:37:03:07:e0:46:51:04:e1:04:15:fa:e5:c0:6a:
                    0b:e8:5b:99:31:7a:62:47:22:56:eb:d7:29:a7:32:
                    eb:66:ce:a9:d3:a8:83:53:56:30:2b:23:fe:07:ec:
                    c4:c5:36:c9:c1:0b:63:0a:fc:93:4d:7e:a7:3a:39:
                    9f:66:c5:4b:7d:6c:73:f8:2e:09:91:85:4a:69:b8:
                    65:0d:b8:54:05:39:a3:cb:37:cc:a2:61:58:aa:6a:
                    78:37:0a:ae:45:9e:37:6b:a8:10:3e:51:43:6f:fe:
                    d9:b2:cd
                Exponent: 65537 (0x10001)
        X509v3 extensions:
            X509v3 Key Usage: critical
                Digital Signature, Key Encipherment
            X509v3 Basic Constraints: 
                CA:FALSE
            X509v3 Extended Key Usage: 
                TLS Web Server Authentication, TLS Web Client Authentication
            X509v3 Subject Key Identifier: 
                78:BC:76:E0:56:30:B8:D8:79:28:B3:3C:01:43:A4:0E:99:6C:51:1D
            X509v3 Authority Key Identifier: 
                D7:48:6A:FF:F3:17:CE:36:8D:5F:BB:36:EA:75:21:00:B5:47:49:15
            X509v3 Subject Alternative Name: 
                IP Address:10.190.133.22
    Signature Algorithm: sha256WithRSAEncryption
    Signature Value:
        0f:02:09:3d:b3:0f:b9:9b:b4:eb:ae:6a:0e:1e:af:fa:14:13:
        66:a1:62:4e:d7:33:d7:0e:ba:fd:cd:93:ae:16:2e:61:a5:f9:
        9f:31:5c:04:67:18:51:68:b4:b1:0a:0a:63:cb:be:b2:6c:1b:
        af:c9:95:a0:07:c5:65:12:9a:7e:be:b8:c4:b2:5b:11:af:7b:
        81:89:83:14:bc:bc:aa:79:6a:cb:0a:53:59:07:c6:49:c1:75:
        50:ea:06:07:83:24:21:ad:83:e0:a0:60:95:0a:78:35:fc:eb:
        44:ee:26:7e:2b:0c:ca:51:da:e1:e7:7e:91:79:31:bf:87:78:
        99:43:6b:7e:c5:35:c2:62:41:08:28:0a:d0:08:51:1d:8c:da:
        51:d9:b4:24:24:29:c7:8b:6c:b9:1e:5f:16:94:04:cb:70:38:
        94:b9:3f:a5:8a:8e:7f:9d:1f:d4:1b:d9:93:10:7c:05:5c:fe:
        68:4a:82:dc:8e:f5:7a:e6:6f:6f:2c:85:53:04:d7:16:e6:1c:
        d3:d1:ba:9a:a0:77:31:a2:94:df:a3:5a:f8:28:84:99:dc:b6:
        41:55:14:6e:a0:21:93:f1:a9:14:44:62:40:de:e3:42:b9:54:
        2c:46:8d:2a:16:ea:50:26:f8:a8:f6:86:61:cc:14:ed:2e:59:
        e9:2c:08:b5:e8:e8:6b:11:6f:b9:a7:2f:74:a7:3a:a9:d9:14:
        ed:b3:15:c7:f5:ee:07:55:40:30:02:77:87:6c:49:e4:28:9b:
        7a:b0:71:d3:2f:50:2c:d0:9e:6c:9c:1c:d8:82:88:d4:86:ed:
        2d:80:d2:03:1e:94:af:df:9d:2b:d9:49:71:de:6b:66:df:37:
        23:8d:86:d9:96:dd:4f:96:e2:19:08:e7:6c:1c:71:19:48:90:
        90:db:25:06:1e:4d:26:b2:dd:f4:89:b2:17:c8:ba:25:c0:d4:
        ae:00:4c:28:b7:51:3e:20:b3:13:96:c0:38:46:64:10:71:9f:
        5b:6d:1b:cf:2c:d4:f1:64:f7:e5:fc:0a:38:05:43:77:39:f1:
        f0:36:6d:76:ac:93:96:28:8e:3f:2b:36:73:3f:9c:00:51:33:
        ce:eb:2f:cd:e8:38:50:7c:08:c1:fb:96:39:a4:98:1b:d2:ee:
        b9:e6:f5:a0:d2:2c:14:bd:90:cf:6d:c3:c7:cb:bd:0b:2b:81:
        3e:44:ab:45:58:f3:27:56:7a:5e:87:72:2d:54:7d:ae:d8:0d:
        86:e4:39:ef:1f:89:96:a9:58:1a:48:a9:ff:f2:d9:8d:79:d7:
        2b:3d:71:d7:ea:75:e1:25:28:f0:f1:5d:d4:05:b5:dc:d4:0e:
        62:0e:9d:9e:ba:28:ad:1d
-----BEGIN CERTIFICATE-----
MIIFfDCCA2SgAwIBAgIUdFD9FdqqqqHmKSeWBP2MkYBl/SwwDQYJKoZIhvcNAQEL
BQAwMzELMAkGA1UEBhMCQ0gxEDAOBgNVBAoMB0hFSUctVkQxEjAQBgNVBAMMCUhh
cnVuLVRMUzAeFw0yNDA2MTQxMjU4NTRaFw0yNTA3MTQxMjU4NTRaMCwxCzAJBgNV
BAYTAkNIMRAwDgYDVQQKDAdIRUlHLVZEMQswCQYDVQQDDAJJUDCCAiIwDQYJKoZI
hvcNAQEBBQADggIPADCCAgoCggIBALqTe+ivY9bAhpNGnXd8KZGL4IuOdWafnmjR
BWkEEO6HahG3rs/lBUCfDMJB6OXgPOSx4GUAwaSBbw/feFn9aMyYq6N1owGoRAt0
iIBBJhOkkbo6E4MBmR/5xiYmVZ+L2nNta7lmedT67O1hAEQk7sjvnB27PRQBuiAF
p0+2L/gg3QIm9mpdErmCg5nXa7RDdohrb8bPeQId1aKkTKHyS02LM6OvDDPi7Ekm
GTYT7fFan3RxcenCWrAc3dDNnav1/l4L/PoVMYYGggwQPKrwVpHV7/QvSwIwL5WK
ltkooiTzDDgiCZ2hIbtyXc898ubidQu/tIqqhpqge2Nx9cMVsB6p8kYvk5Vb5vwr
xyWdu7t326iUHP4EzjNTAnyY5lz9zFZoRrvP0Rc9rYiPqldIaSOUsC+g8qnxToTF
+twPC5E1AooY0eYIF/Y1cziRj1U2wyGgqE043KzVZ6numyW2Rgb0XdwaBCaYy+ZZ
y0uJiPBv+h7A+hBWIsh4OvypZG5iTL4zm7h3317C1mQso7g9VLVST1xpajcDB+BG
UQThBBX65cBqC+hbmTF6YkciVuvXKacy62bOqdOog1NWMCsj/gfsxMU2ycELYwr8
k01+pzo5n2bFS31sc/guCZGFSmm4ZQ24VAU5o8s3zKJhWKpqeDcKrkWeN2uoED5R
Q2/+2bLNAgMBAAGjgY4wgYswDgYDVR0PAQH/BAQDAgWgMAkGA1UdEwQCMAAwHQYD
VR0lBBYwFAYIKwYBBQUHAwEGCCsGAQUFBwMCMB0GA1UdDgQWBBR4vHbgVjC42Hko
szwBQ6QOmWxRHTAfBgNVHSMEGDAWgBTXSGr/8xfONo1fuzbqdSEAtUdJFTAPBgNV
HREECDAGhwQKvoUWMA0GCSqGSIb3DQEBCwUAA4ICAQAPAgk9sw+5m7TrrmoOHq/6
FBNmoWJO1zPXDrr9zZOuFi5hpfmfMVwEZxhRaLSxCgpjy76ybBuvyZWgB8VlEpp+
vrjEslsRr3uBiYMUvLyqeWrLClNZB8ZJwXVQ6gYHgyQhrYPgoGCVCng1/OtE7iZ+
KwzKUdrh536ReTG/h3iZQ2t+xTXCYkEIKArQCFEdjNpR2bQkJCnHi2y5Hl8WlATL
cDiUuT+lio5/nR/UG9mTEHwFXP5oSoLcjvV65m9vLIVTBNcW5hzT0bqaoHcxopTf
o1r4KISZ3LZBVRRuoCGT8akURGJA3uNCuVQsRo0qFupQJvio9oZhzBTtLlnpLAi1
6OhrEW+5py90pzqp2RTtsxXH9e4HVUAwAneHbEnkKJt6sHHTL1As0J5snBzYgojU
hu0tgNIDHpSv350r2Ulx3mtm3zcjjYbZlt1PluIZCOdsHHEZSJCQ2yUGHk0mst30
ibIXyLolwNSuAEwot1E+ILMTlsA4RmQQcZ9bbRvPLNTxZPfl/Ao4BUN3OfHwNm12
rJOWKI4/KzZzP5wAUTPO6y/N6DhQfAjB+5Y5pJgb0u655vWg0iwUvZDPbcPHy70L
K4E+RKtFWPMnVnpeh3ItVH2u2A2G5DnvH4mWqVgaSKn/8tmNedcrPXHX6nXhJSjw
8V3UBbXc1A5iDp2euiitHQ==
-----END CERTIFICATE-----
Certificate:
    Data:
        Version: 3 (0x2)
        Serial Number:
            07:ca:c7:21:14:87:ff:ad:10:07:7f:e3:da:28:4f:19:ce:84:d1:5c
        Signature Algorithm: sha256WithRSAEncryption
        Issuer: C=CH, O=HEIG-VD, CN=HEIG-VDRoot
        Validity
            Not Before: Jun 14 11:01:52 2024 GMT
            Not After : Jun 14 11:01:52 2034 GMT
        Subject: C=CH, O=HEIG-VD, CN=Harun-TLS
        Subject Public Key Info:
            Public Key Algorithm: rsaEncryption
                Public-Key: (4096 bit)
                Modulus:
                    00:96:e5:d4:e8:92:e7:76:31:3d:57:37:c0:ea:7e:
                    47:a1:c1:26:b8:0d:15:c1:e6:18:6d:e2:e8:36:2a:
                    fc:8c:12:a5:f3:b8:fd:c4:e0:75:02:89:17:66:41:
                    9c:3d:f5:8d:33:fa:30:e4:df:9c:65:ed:e0:cb:75:
                    a9:3d:16:19:2a:58:b4:9a:13:d8:aa:c1:9b:29:3d:
                    fb:fa:d8:96:d8:97:77:86:d6:1d:a6:a4:6b:c2:be:
                    12:57:46:14:bb:4f:ce:fd:51:9d:5a:32:87:50:0e:
                    9b:86:5b:65:b1:e0:99:82:ea:85:fe:4f:03:08:24:
                    c1:b2:6f:22:31:08:f0:d5:b5:30:26:3a:9a:b4:b8:
                    28:0d:6b:8f:d1:ce:c3:ab:74:77:44:e2:e1:28:8a:
                    0b:88:e6:4d:4a:de:34:a1:90:07:48:b3:70:8a:47:
                    75:34:15:73:ce:3a:6d:d4:6b:36:5d:d1:2d:5c:8c:
                    ac:fc:0c:b3:08:b4:ba:9c:71:8f:17:d0:5d:cc:eb:
                    92:40:c3:c8:30:40:bf:b4:b4:00:4d:b4:1e:c3:da:
                    9e:09:83:93:74:a5:df:48:a4:40:9b:a5:58:45:00:
                    c0:dd:8c:cb:0b:cc:1c:db:04:bf:eb:89:2e:d6:11:
                    72:c0:88:52:ad:43:e7:11:c4:f9:69:7c:fe:a8:c4:
                    8e:51:54:7f:88:14:b6:80:2f:f0:00:97:6e:24:d9:
                    9c:7f:6c:95:8b:e3:4d:a0:09:b1:f6:7b:60:1b:2c:
                    b2:a4:a6:84:40:a0:18:e4:d5:bf:f8:98:ee:c6:f2:
                    e8:cf:46:07:bc:a7:64:eb:a2:1f:c8:1e:b5:6c:6d:
                    3f:a9:eb:e4:02:a7:84:c1:04:a4:a5:c7:13:f9:dc:
                    d3:3c:0c:c4:2b:86:d1:8a:c1:a9:ff:01:f6:49:84:
                    89:e0:f9:b9:10:34:21:8a:d3:70:f6:01:f9:67:bd:
                    f4:99:39:96:2f:d7:2e:d9:07:62:be:4e:72:73:68:
                    cf:2f:88:e5:7c:f7:40:20:e0:c0:7c:3a:01:de:6c:
                    47:d0:0a:8a:5b:2a:fe:2a:88:64:86:a7:84:67:1d:
                    81:da:02:88:cc:41:47:33:1c:db:4c:3e:1a:f7:5f:
                    5b:e1:09:d0:50:29:38:71:fa:5a:f7:80:3f:fd:bc:
                    99:a5:9d:df:71:12:f8:54:ad:7c:bf:f3:25:d1:b2:
                    96:a2:8a:70:4b:41:f6:f6:d2:90:44:94:77:ec:f5:
                    c4:e1:3d:83:c7:9e:46:d8:35:78:01:22:ea:11:53:
                    c7:ac:5b:fd:1e:f7:05:14:87:17:80:dd:e7:53:89:
                    6b:0f:aa:e4:ce:d7:15:06:aa:eb:1b:c0:6f:ba:78:
                    5a:6e:6f
                Exponent: 65537 (0x10001)
        X509v3 extensions:
            X509v3 Key Usage: critical
                Certificate Sign, CRL Sign
            X509v3 Basic Constraints: critical
                CA:TRUE, pathlen:0
            X509v3 Subject Key Identifier: 
                D7:48:6A:FF:F3:17:CE:36:8D:5F:BB:36:EA:75:21:00:B5:47:49:15
            X509v3 Authority Key Identifier: 
                3B:D0:A5:0C:62:70:E5:F4:B4:04:20:46:55:E8:EB:57:19:89:3E:E4
    Signature Algorithm: sha256WithRSAEncryption
    Signature Value:
        56:cf:07:49:2a:b6:5e:54:bc:aa:09:2d:82:72:8c:8d:f7:28:
        4c:61:06:87:fc:5c:f7:70:34:4a:ed:64:94:9d:74:50:e4:b5:
        27:3a:18:05:86:31:cb:10:68:80:59:56:61:30:09:de:6f:b6:
        f1:bf:0e:36:29:f8:46:ca:ab:3f:9e:3d:de:6a:d4:35:5b:96:
        e4:19:bf:7c:62:af:e9:92:88:e9:7f:e9:53:dc:51:52:43:d5:
        be:51:9c:7c:aa:79:df:4e:df:ce:2c:2c:2a:84:fd:61:84:16:
        07:b2:0c:f8:80:8c:77:b6:14:5f:b1:11:29:ba:58:e9:b6:b2:
        e8:00:6e:f6:5c:56:10:89:37:53:61:aa:91:0c:72:f1:b4:72:
        f5:1b:85:cb:a2:ed:de:36:a7:d4:3a:d3:7d:41:b6:4e:36:26:
        01:33:15:ec:b6:a9:bf:71:5c:fe:a0:83:a3:d3:6f:d0:a2:0d:
        66:81:61:18:a3:1b:5a:76:f0:d3:c5:d4:da:8b:8a:a9:41:63:
        96:b1:84:89:2d:e2:92:24:64:d9:ef:96:c9:1a:f6:45:a5:ce:
        af:eb:9f:3e:3d:af:30:c2:5b:bf:54:e2:71:c5:11:39:fd:ec:
        ed:bb:19:dc:be:04:31:48:ff:81:a7:16:0b:97:3e:2a:b1:ef:
        41:2d:00:34
-----BEGIN CERTIFICATE-----
MIIEXDCCA0SgAwIBAgIUB8rHIRSH/60QB3/j2ihPGc6E0VwwDQYJKoZIhvcNAQEL
BQAwNTELMAkGA1UEBhMCQ0gxEDAOBgNVBAoMB0hFSUctVkQxFDASBgNVBAMMC0hF
SUctVkRSb290MB4XDTI0MDYxNDExMDE1MloXDTM0MDYxNDExMDE1MlowMzELMAkG
A1UEBhMCQ0gxEDAOBgNVBAoMB0hFSUctVkQxEjAQBgNVBAMMCUhhcnVuLVRMUzCC
AiIwDQYJKoZIhvcNAQEBBQADggIPADCCAgoCggIBAJbl1OiS53YxPVc3wOp+R6HB
JrgNFcHmGG3i6DYq/IwSpfO4/cTgdQKJF2ZBnD31jTP6MOTfnGXt4Mt1qT0WGSpY
tJoT2KrBmyk9+/rYltiXd4bWHaaka8K+EldGFLtPzv1RnVoyh1AOm4ZbZbHgmYLq
hf5PAwgkwbJvIjEI8NW1MCY6mrS4KA1rj9HOw6t0d0Ti4SiKC4jmTUreNKGQB0iz
cIpHdTQVc846bdRrNl3RLVyMrPwMswi0upxxjxfQXczrkkDDyDBAv7S0AE20HsPa
ngmDk3Sl30ikQJulWEUAwN2MywvMHNsEv+uJLtYRcsCIUq1D5xHE+Wl8/qjEjlFU
f4gUtoAv8ACXbiTZnH9slYvjTaAJsfZ7YBsssqSmhECgGOTVv/iY7sby6M9GB7yn
ZOuiH8getWxtP6nr5AKnhMEEpKXHE/nc0zwMxCuG0YrBqf8B9kmEieD5uRA0IYrT
cPYB+We99Jk5li/XLtkHYr5OcnNozy+I5Xz3QCDgwHw6Ad5sR9AKilsq/iqIZIan
hGcdgdoCiMxBRzMc20w+GvdfW+EJ0FApOHH6WveAP/28maWd33ES+FStfL/zJdGy
lqKKcEtB9vbSkESUd+z1xOE9g8eeRtg1eAEi6hFTx6xb/R73BRSHF4Dd51OJaw+q
5M7XFQaq6xvAb7p4Wm5vAgMBAAGjZjBkMA4GA1UdDwEB/wQEAwIBBjASBgNVHRMB
Af8ECDAGAQH/AgEAMB0GA1UdDgQWBBTXSGr/8xfONo1fuzbqdSEAtUdJFTAfBgNV
HSMEGDAWgBQ70KUMYnDl9LQEIEZV6OtXGYk+5DANBgkqhkiG9w0BAQsFAAOCAQEA
Vs8HSSq2XlS8qgktgnKMjfcoTGEGh/xc93A0Su1klJ10UOS1JzoYBYYxyxBogFlW
YTAJ3m+28b8ONin4RsqrP5493mrUNVuW5Bm/fGKv6ZKI6X/pU9xRUkPVvlGcfKp5
307fziwsKoT9YYQWB7IM+ICMd7YUX7ERKbpY6bay6ABu9lxWEIk3U2GqkQxy8bRy
9RuFy6Lt3jan1DrTfUG2TjYmATMV7Lapv3Fc/qCDo9Nv0KINZoFhGKMbWnbw08XU
2ouKqUFjlrGEiS3ikiRk2e+WyRr2RaXOr+ufPj2vMMJbv1TiccUROf3s7bsZ3L4E
MUj/gacWC5c+KrHvQS0ANA==
-----END CERTIFICATE-----
