Certificate:
    Data:
        Version: 3 (0x2)
        Serial Number:
            23:b7:98:9e:f0:94:c8:be:e4:2b:19:87:de:01:b3:6b:c9:f2:f3:d0
        Signature Algorithm: sha256WithRSAEncryption
        Issuer: C=CH, O=HEIG-VD, CN=Harun-Email
        Validity
            Not Before: Jun 14 11:53:47 2024 GMT
            Not After : Jul 14 11:53:47 2025 GMT
        Subject: C=CH, O=HEIG-VD, CN=ouweis.harun@heig-vd.ch
        Subject Public Key Info:
            Public Key Algorithm: rsaEncryption
                Public-Key: (4096 bit)
                Modulus:
                    00:b3:32:a3:bc:6a:0e:2a:3b:9d:ed:e8:e6:5a:75:
                    15:65:f2:53:e3:de:58:ee:e6:b0:3b:c4:1e:bb:b2:
                    25:9f:d2:02:e9:21:44:13:dc:c9:b6:22:fb:df:5d:
                    35:a7:ed:ac:53:0a:a4:f8:8d:c6:27:96:3c:45:90:
                    a8:cf:20:f8:ec:55:48:aa:c5:a5:80:59:9d:b1:d6:
                    54:ac:3f:16:12:7d:6c:18:19:bd:82:96:7d:74:0e:
                    46:d3:1a:77:a6:4b:a6:cd:9d:a9:3f:e8:5a:cb:87:
                    6f:ee:12:61:dc:ee:6c:b3:ad:64:2a:2e:ae:6f:49:
                    c4:86:42:c6:c9:2a:b7:7e:da:60:c3:43:9a:48:7f:
                    2a:85:d8:5b:47:53:a9:46:0a:01:ce:86:cd:f0:e4:
                    87:14:d0:44:b8:d1:c2:79:5d:5b:e7:d5:af:65:33:
                    3d:3c:78:1d:f3:db:77:4f:5a:0b:cd:43:43:97:1f:
                    4c:3f:a7:0f:cc:1b:a8:94:e9:54:9f:fa:e7:c0:49:
                    61:2c:54:f9:64:11:2e:d6:61:5a:bd:40:cf:82:15:
                    08:f7:03:9d:71:45:3c:df:02:20:a0:11:b7:78:65:
                    a4:3d:c5:5c:b6:6c:9e:a4:21:bd:e8:a0:48:7a:1f:
                    14:a1:86:ae:6c:73:e0:c2:fd:f7:6e:bc:88:2a:33:
                    6c:0b:6a:05:5f:9d:98:61:63:19:c9:d9:af:7b:21:
                    76:60:b9:db:74:38:8a:f3:c6:b1:27:87:c4:43:17:
                    7a:77:b1:43:0f:72:96:38:15:a1:4f:d7:f2:25:14:
                    fe:6f:13:4a:bc:36:b6:ef:75:5e:97:ce:96:43:e6:
                    c7:55:57:d4:7e:c8:9e:c6:c2:a5:7e:d8:80:06:84:
                    ec:82:79:65:52:ad:33:fa:be:d1:13:da:de:9d:0a:
                    f4:d8:01:e6:58:dd:1e:e6:20:05:0b:50:51:a3:b7:
                    0c:bd:9d:a9:37:5e:c6:33:3e:eb:12:2d:96:75:78:
                    9f:68:d1:70:81:34:f8:1b:ae:23:c7:31:ad:fe:13:
                    bd:62:d3:4b:11:fe:7d:be:b3:f2:80:19:bf:ee:21:
                    b5:c1:cc:61:0b:a2:a8:78:45:eb:ea:b9:ee:8b:5b:
                    3c:20:ca:5e:2e:37:21:28:35:4b:dc:28:02:c4:d6:
                    2f:7b:81:38:50:e5:38:fa:27:6e:f5:13:e2:78:3d:
                    4c:c4:a1:be:43:92:9e:ec:ec:c4:76:ca:c4:2d:20:
                    8e:3f:82:94:e7:00:9d:ce:8f:63:3c:83:23:2d:8f:
                    da:39:3f:ed:f9:a9:16:db:b9:bf:31:d2:c0:41:dd:
                    85:e8:8a:f6:7a:11:08:1e:b9:f2:39:ee:43:eb:83:
                    5a:e4:c3
                Exponent: 65537 (0x10001)
        X509v3 extensions:
            X509v3 Key Usage: critical
                Digital Signature, Key Encipherment
            X509v3 Basic Constraints: 
                CA:FALSE
            X509v3 Extended Key Usage: 
                E-mail Protection, TLS Web Client Authentication, Any Extended Key Usage
            X509v3 Subject Key Identifier: 
                32:0D:E8:41:A0:63:C9:68:E3:FC:40:A3:0F:DC:8C:8B:94:DD:05:45
            X509v3 Authority Key Identifier: 
                53:20:68:8C:60:06:50:F3:4A:2D:94:66:FD:6A:EF:E4:E5:92:B8:D6
            X509v3 Subject Alternative Name: 
                email:ouweis.harun@heig-vd.ch
    Signature Algorithm: sha256WithRSAEncryption
    Signature Value:
        52:47:55:93:74:99:a2:30:53:7f:1a:eb:e1:b0:a7:69:6b:b6:
        b3:f7:f3:1d:0e:8d:6d:f6:aa:40:d1:e9:79:83:cb:75:dd:6b:
        f0:49:d6:e1:c0:57:2b:59:4e:cc:07:ca:a8:31:a3:d1:5d:cd:
        7a:aa:6f:ae:08:69:a5:7f:30:5b:e1:f4:e0:62:56:f3:e9:58:
        c4:a2:c0:e2:58:41:16:dc:c9:2e:0d:37:8b:9a:89:cb:3e:c5:
        db:66:75:83:cb:57:c1:94:d4:e9:6c:79:66:12:08:ef:e4:58:
        8e:32:1e:e4:32:9a:58:b5:9c:39:0b:2a:a9:d7:b2:c1:a6:f2:
        37:98:6e:06:a7:2f:f4:a3:4b:be:5e:e5:f7:9b:53:ee:41:17:
        94:66:67:15:57:23:04:1b:e2:9b:73:db:77:0d:1e:01:97:02:
        74:da:3f:a0:0b:59:57:ae:33:0e:86:68:b2:7a:86:25:8e:66:
        11:ed:1c:e1:16:e8:11:0a:42:16:8b:14:8e:ec:a2:9f:58:8d:
        4c:4a:27:77:7f:e3:09:4f:12:fa:30:1b:dc:95:29:8e:ef:9a:
        6c:45:ad:87:4f:bd:39:66:1b:e3:19:d3:f4:6a:72:53:6a:de:
        25:4d:8c:31:30:7a:4b:9a:67:14:4c:7a:fa:22:c8:d2:78:3e:
        30:c5:c6:bb:09:88:56:22:6d:1d:3d:b4:e7:2b:2e:ae:c3:52:
        d5:9f:cc:3b:07:2e:e3:0e:14:76:e2:e3:4d:8b:20:e4:df:44:
        69:69:86:e2:06:b1:df:84:a2:e0:2b:5b:3d:43:e2:c6:11:c1:
        67:b3:71:43:48:fd:e0:cd:37:7e:48:8b:0e:1c:24:76:b2:80:
        9c:f6:23:dd:63:83:d4:58:d3:d2:48:6d:de:8b:cc:90:a0:4b:
        30:8e:8d:fe:c5:17:8c:a2:c5:bd:75:d6:99:c4:1c:08:5c:39:
        c3:7b:bf:47:81:7b:72:6b:db:ea:b8:ae:44:0f:e6:4a:54:f6:
        c4:30:7a:6a:f1:4d:14:b9:e7:23:e9:17:10:c2:7b:e0:36:b9:
        a5:99:c1:8e:3f:56:59:dc:fb:e2:c6:52:22:dc:32:ba:e1:42:
        9d:8d:20:09:0c:18:17:d6:bf:4c:58:0d:0b:73:0c:91:a2:08:
        09:b3:90:7c:65:ec:e9:7a:b5:5d:9d:41:cd:4b:46:83:96:a2:
        3d:39:a9:12:68:1a:12:bb:34:5d:f4:3e:2d:89:3c:80:cf:12:
        1d:f6:4c:f3:53:0f:78:f5:cb:c8:c4:eb:1d:dd:46:1a:a4:fc:
        6c:b4:e0:77:d4:cd:c5:69:ce:7c:66:2e:e7:37:79:95:8e:cb:
        96:35:77:3c:76:b1:4b:48
-----BEGIN CERTIFICATE-----
MIIFrDCCA5SgAwIBAgIUI7eYnvCUyL7kKxmH3gGza8ny89AwDQYJKoZIhvcNAQEL
BQAwNTELMAkGA1UEBhMCQ0gxEDAOBgNVBAoMB0hFSUctVkQxFDASBgNVBAMMC0hh
cnVuLUVtYWlsMB4XDTI0MDYxNDExNTM0N1oXDTI1MDcxNDExNTM0N1owQTELMAkG
A1UEBhMCQ0gxEDAOBgNVBAoMB0hFSUctVkQxIDAeBgNVBAMMF291d2Vpcy5oYXJ1
bkBoZWlnLXZkLmNoMIICIjANBgkqhkiG9w0BAQEFAAOCAg8AMIICCgKCAgEAszKj
vGoOKjud7ejmWnUVZfJT495Y7uawO8Qeu7Iln9IC6SFEE9zJtiL73101p+2sUwqk
+I3GJ5Y8RZCozyD47FVIqsWlgFmdsdZUrD8WEn1sGBm9gpZ9dA5G0xp3pkumzZ2p
P+hay4dv7hJh3O5ss61kKi6ub0nEhkLGySq3ftpgw0OaSH8qhdhbR1OpRgoBzobN
8OSHFNBEuNHCeV1b59WvZTM9PHgd89t3T1oLzUNDlx9MP6cPzBuolOlUn/rnwElh
LFT5ZBEu1mFavUDPghUI9wOdcUU83wIgoBG3eGWkPcVctmyepCG96KBIeh8UoYau
bHPgwv33bryIKjNsC2oFX52YYWMZydmveyF2YLnbdDiK88axJ4fEQxd6d7FDD3KW
OBWhT9fyJRT+bxNKvDa273Vel86WQ+bHVVfUfsiexsKlftiABoTsgnllUq0z+r7R
E9renQr02AHmWN0e5iAFC1BRo7cMvZ2pN17GMz7rEi2WdXifaNFwgTT4G64jxzGt
/hO9YtNLEf59vrPygBm/7iG1wcxhC6KoeEXr6rnui1s8IMpeLjchKDVL3CgCxNYv
e4E4UOU4+idu9RPieD1MxKG+Q5Ke7OzEdsrELSCOP4KU5wCdzo9jPIMjLY/aOT/t
+akW27m/MdLAQd2F6Ir2ehEIHrnyOe5D64Na5MMCAwEAAaOBpzCBpDAOBgNVHQ8B
Af8EBAMCBaAwCQYDVR0TBAIwADAjBgNVHSUEHDAaBggrBgEFBQcDBAYIKwYBBQUH
AwIGBFUdJQAwHQYDVR0OBBYEFDIN6EGgY8lo4/xAow/cjIuU3QVFMB8GA1UdIwQY
MBaAFFMgaIxgBlDzSi2UZv1q7+TlkrjWMCIGA1UdEQQbMBmBF291d2Vpcy5oYXJ1
bkBoZWlnLXZkLmNoMA0GCSqGSIb3DQEBCwUAA4ICAQBSR1WTdJmiMFN/GuvhsKdp
a7az9/MdDo1t9qpA0el5g8t13WvwSdbhwFcrWU7MB8qoMaPRXc16qm+uCGmlfzBb
4fTgYlbz6VjEosDiWEEW3MkuDTeLmonLPsXbZnWDy1fBlNTpbHlmEgjv5FiOMh7k
MppYtZw5Cyqp17LBpvI3mG4Gpy/0o0u+XuX3m1PuQReUZmcVVyMEG+Kbc9t3DR4B
lwJ02j+gC1lXrjMOhmiyeoYljmYR7RzhFugRCkIWixSO7KKfWI1MSid3f+MJTxL6
MBvclSmO75psRa2HT705ZhvjGdP0anJTat4lTYwxMHpLmmcUTHr6IsjSeD4wxca7
CYhWIm0dPbTnKy6uw1LVn8w7By7jDhR24uNNiyDk30RpaYbiBrHfhKLgK1s9Q+LG
EcFns3FDSP3gzTd+SIsOHCR2soCc9iPdY4PUWNPSSG3ei8yQoEswjo3+xReMosW9
ddaZxBwIXDnDe79HgXtya9vquK5ED+ZKVPbEMHpq8U0Uuecj6RcQwnvgNrmlmcGO
P1ZZ3PvixlIi3DK64UKdjSAJDBgX1r9MWA0LcwyRoggJs5B8ZezperVdnUHNS0aD
lqI9OakSaBoSuzRd9D4tiTyAzxId9kzzUw949cvIxOsd3UYapPxstOB31M3Fac58
Zi7nN3mVjsuWNXc8drFLSA==
-----END CERTIFICATE-----
