Certificate:
    Data:
        Version: 3 (0x2)
        Serial Number:
            74:50:fd:15:da:aa:aa:a1:e6:29:27:96:04:fd:8c:91:80:65:fd:2c
        Signature Algorithm: sha256WithRSAEncryption
        Issuer: C=CH, O=HEIG-VD, CN=Harun-TLS
        Validity
            Not Before: Jun 14 12:58:54 2024 GMT
            Not After : Jul 14 12:58:54 2025 GMT
        Subject: C=CH, O=HEIG-VD, CN=IP
        Subject Public Key Info:
            Public Key Algorithm: rsaEncryption
                Public-Key: (4096 bit)
                Modulus:
                    00:ba:93:7b:e8:af:63:d6:c0:86:93:46:9d:77:7c:
                    29:91:8b:e0:8b:8e:75:66:9f:9e:68:d1:05:69:04:
                    10:ee:87:6a:11:b7:ae:cf:e5:05:40:9f:0c:c2:41:
                    e8:e5:e0:3c:e4:b1:e0:65:00:c1:a4:81:6f:0f:df:
                    78:59:fd:68:cc:98:ab:a3:75:a3:01:a8:44:0b:74:
                    88:80:41:26:13:a4:91:ba:3a:13:83:01:99:1f:f9:
                    c6:26:26:55:9f:8b:da:73:6d:6b:b9:66:79:d4:fa:
                    ec:ed:61:00:44:24:ee:c8:ef:9c:1d:bb:3d:14:01:
                    ba:20:05:a7:4f:b6:2f:f8:20:dd:02:26:f6:6a:5d:
                    12:b9:82:83:99:d7:6b:b4:43:76:88:6b:6f:c6:cf:
                    79:02:1d:d5:a2:a4:4c:a1:f2:4b:4d:8b:33:a3:af:
                    0c:33:e2:ec:49:26:19:36:13:ed:f1:5a:9f:74:71:
                    71:e9:c2:5a:b0:1c:dd:d0:cd:9d:ab:f5:fe:5e:0b:
                    fc:fa:15:31:86:06:82:0c:10:3c:aa:f0:56:91:d5:
                    ef:f4:2f:4b:02:30:2f:95:8a:96:d9:28:a2:24:f3:
                    0c:38:22:09:9d:a1:21:bb:72:5d:cf:3d:f2:e6:e2:
                    75:0b:bf:b4:8a:aa:86:9a:a0:7b:63:71:f5:c3:15:
                    b0:1e:a9:f2:46:2f:93:95:5b:e6:fc:2b:c7:25:9d:
                    bb:bb:77:db:a8:94:1c:fe:04:ce:33:53:02:7c:98:
                    e6:5c:fd:cc:56:68:46:bb:cf:d1:17:3d:ad:88:8f:
                    aa:57:48:69:23:94:b0:2f:a0:f2:a9:f1:4e:84:c5:
                    fa:dc:0f:0b:91:35:02:8a:18:d1:e6:08:17:f6:35:
                    73:38:91:8f:55:36:c3:21:a0:a8:4d:38:dc:ac:d5:
                    67:a9:ee:9b:25:b6:46:06:f4:5d:dc:1a:04:26:98:
                    cb:e6:59:cb:4b:89:88:f0:6f:fa:1e:c0:fa:10:56:
                    22:c8:78:3a:fc:a9:64:6e:62:4c:be:33:9b:b8:77:
                    df:5e:c2:d6:64:2c:a3:b8:3d:54:b5:52:4f:5c:69:
                    6a:37:03:07:e0:46:51:04:e1:04:15:fa:e5:c0:6a:
                    0b:e8:5b:99:31:7a:62:47:22:56:eb:d7:29:a7:32:
                    eb:66:ce:a9:d3:a8:83:53:56:30:2b:23:fe:07:ec:
                    c4:c5:36:c9:c1:0b:63:0a:fc:93:4d:7e:a7:3a:39:
                    9f:66:c5:4b:7d:6c:73:f8:2e:09:91:85:4a:69:b8:
                    65:0d:b8:54:05:39:a3:cb:37:cc:a2:61:58:aa:6a:
                    78:37:0a:ae:45:9e:37:6b:a8:10:3e:51:43:6f:fe:
                    d9:b2:cd
                Exponent: 65537 (0x10001)
        X509v3 extensions:
            X509v3 Key Usage: critical
                Digital Signature, Key Encipherment
            X509v3 Basic Constraints: 
                CA:FALSE
            X509v3 Extended Key Usage: 
                TLS Web Server Authentication, TLS Web Client Authentication
            X509v3 Subject Key Identifier: 
                78:BC:76:E0:56:30:B8:D8:79:28:B3:3C:01:43:A4:0E:99:6C:51:1D
            X509v3 Authority Key Identifier: 
                D7:48:6A:FF:F3:17:CE:36:8D:5F:BB:36:EA:75:21:00:B5:47:49:15
            X509v3 Subject Alternative Name: 
                IP Address:10.190.133.22
    Signature Algorithm: sha256WithRSAEncryption
    Signature Value:
        0f:02:09:3d:b3:0f:b9:9b:b4:eb:ae:6a:0e:1e:af:fa:14:13:
        66:a1:62:4e:d7:33:d7:0e:ba:fd:cd:93:ae:16:2e:61:a5:f9:
        9f:31:5c:04:67:18:51:68:b4:b1:0a:0a:63:cb:be:b2:6c:1b:
        af:c9:95:a0:07:c5:65:12:9a:7e:be:b8:c4:b2:5b:11:af:7b:
        81:89:83:14:bc:bc:aa:79:6a:cb:0a:53:59:07:c6:49:c1:75:
        50:ea:06:07:83:24:21:ad:83:e0:a0:60:95:0a:78:35:fc:eb:
        44:ee:26:7e:2b:0c:ca:51:da:e1:e7:7e:91:79:31:bf:87:78:
        99:43:6b:7e:c5:35:c2:62:41:08:28:0a:d0:08:51:1d:8c:da:
        51:d9:b4:24:24:29:c7:8b:6c:b9:1e:5f:16:94:04:cb:70:38:
        94:b9:3f:a5:8a:8e:7f:9d:1f:d4:1b:d9:93:10:7c:05:5c:fe:
        68:4a:82:dc:8e:f5:7a:e6:6f:6f:2c:85:53:04:d7:16:e6:1c:
        d3:d1:ba:9a:a0:77:31:a2:94:df:a3:5a:f8:28:84:99:dc:b6:
        41:55:14:6e:a0:21:93:f1:a9:14:44:62:40:de:e3:42:b9:54:
        2c:46:8d:2a:16:ea:50:26:f8:a8:f6:86:61:cc:14:ed:2e:59:
        e9:2c:08:b5:e8:e8:6b:11:6f:b9:a7:2f:74:a7:3a:a9:d9:14:
        ed:b3:15:c7:f5:ee:07:55:40:30:02:77:87:6c:49:e4:28:9b:
        7a:b0:71:d3:2f:50:2c:d0:9e:6c:9c:1c:d8:82:88:d4:86:ed:
        2d:80:d2:03:1e:94:af:df:9d:2b:d9:49:71:de:6b:66:df:37:
        23:8d:86:d9:96:dd:4f:96:e2:19:08:e7:6c:1c:71:19:48:90:
        90:db:25:06:1e:4d:26:b2:dd:f4:89:b2:17:c8:ba:25:c0:d4:
        ae:00:4c:28:b7:51:3e:20:b3:13:96:c0:38:46:64:10:71:9f:
        5b:6d:1b:cf:2c:d4:f1:64:f7:e5:fc:0a:38:05:43:77:39:f1:
        f0:36:6d:76:ac:93:96:28:8e:3f:2b:36:73:3f:9c:00:51:33:
        ce:eb:2f:cd:e8:38:50:7c:08:c1:fb:96:39:a4:98:1b:d2:ee:
        b9:e6:f5:a0:d2:2c:14:bd:90:cf:6d:c3:c7:cb:bd:0b:2b:81:
        3e:44:ab:45:58:f3:27:56:7a:5e:87:72:2d:54:7d:ae:d8:0d:
        86:e4:39:ef:1f:89:96:a9:58:1a:48:a9:ff:f2:d9:8d:79:d7:
        2b:3d:71:d7:ea:75:e1:25:28:f0:f1:5d:d4:05:b5:dc:d4:0e:
        62:0e:9d:9e:ba:28:ad:1d
-----BEGIN CERTIFICATE-----
MIIFfDCCA2SgAwIBAgIUdFD9FdqqqqHmKSeWBP2MkYBl/SwwDQYJKoZIhvcNAQEL
BQAwMzELMAkGA1UEBhMCQ0gxEDAOBgNVBAoMB0hFSUctVkQxEjAQBgNVBAMMCUhh
cnVuLVRMUzAeFw0yNDA2MTQxMjU4NTRaFw0yNTA3MTQxMjU4NTRaMCwxCzAJBgNV
BAYTAkNIMRAwDgYDVQQKDAdIRUlHLVZEMQswCQYDVQQDDAJJUDCCAiIwDQYJKoZI
hvcNAQEBBQADggIPADCCAgoCggIBALqTe+ivY9bAhpNGnXd8KZGL4IuOdWafnmjR
BWkEEO6HahG3rs/lBUCfDMJB6OXgPOSx4GUAwaSBbw/feFn9aMyYq6N1owGoRAt0
iIBBJhOkkbo6E4MBmR/5xiYmVZ+L2nNta7lmedT67O1hAEQk7sjvnB27PRQBuiAF
p0+2L/gg3QIm9mpdErmCg5nXa7RDdohrb8bPeQId1aKkTKHyS02LM6OvDDPi7Ekm
GTYT7fFan3RxcenCWrAc3dDNnav1/l4L/PoVMYYGggwQPKrwVpHV7/QvSwIwL5WK
ltkooiTzDDgiCZ2hIbtyXc898ubidQu/tIqqhpqge2Nx9cMVsB6p8kYvk5Vb5vwr
xyWdu7t326iUHP4EzjNTAnyY5lz9zFZoRrvP0Rc9rYiPqldIaSOUsC+g8qnxToTF
+twPC5E1AooY0eYIF/Y1cziRj1U2wyGgqE043KzVZ6numyW2Rgb0XdwaBCaYy+ZZ
y0uJiPBv+h7A+hBWIsh4OvypZG5iTL4zm7h3317C1mQso7g9VLVST1xpajcDB+BG
UQThBBX65cBqC+hbmTF6YkciVuvXKacy62bOqdOog1NWMCsj/gfsxMU2ycELYwr8
k01+pzo5n2bFS31sc/guCZGFSmm4ZQ24VAU5o8s3zKJhWKpqeDcKrkWeN2uoED5R
Q2/+2bLNAgMBAAGjgY4wgYswDgYDVR0PAQH/BAQDAgWgMAkGA1UdEwQCMAAwHQYD
VR0lBBYwFAYIKwYBBQUHAwEGCCsGAQUFBwMCMB0GA1UdDgQWBBR4vHbgVjC42Hko
szwBQ6QOmWxRHTAfBgNVHSMEGDAWgBTXSGr/8xfONo1fuzbqdSEAtUdJFTAPBgNV
HREECDAGhwQKvoUWMA0GCSqGSIb3DQEBCwUAA4ICAQAPAgk9sw+5m7TrrmoOHq/6
FBNmoWJO1zPXDrr9zZOuFi5hpfmfMVwEZxhRaLSxCgpjy76ybBuvyZWgB8VlEpp+
vrjEslsRr3uBiYMUvLyqeWrLClNZB8ZJwXVQ6gYHgyQhrYPgoGCVCng1/OtE7iZ+
KwzKUdrh536ReTG/h3iZQ2t+xTXCYkEIKArQCFEdjNpR2bQkJCnHi2y5Hl8WlATL
cDiUuT+lio5/nR/UG9mTEHwFXP5oSoLcjvV65m9vLIVTBNcW5hzT0bqaoHcxopTf
o1r4KISZ3LZBVRRuoCGT8akURGJA3uNCuVQsRo0qFupQJvio9oZhzBTtLlnpLAi1
6OhrEW+5py90pzqp2RTtsxXH9e4HVUAwAneHbEnkKJt6sHHTL1As0J5snBzYgojU
hu0tgNIDHpSv350r2Ulx3mtm3zcjjYbZlt1PluIZCOdsHHEZSJCQ2yUGHk0mst30
ibIXyLolwNSuAEwot1E+ILMTlsA4RmQQcZ9bbRvPLNTxZPfl/Ao4BUN3OfHwNm12
rJOWKI4/KzZzP5wAUTPO6y/N6DhQfAjB+5Y5pJgb0u655vWg0iwUvZDPbcPHy70L
K4E+RKtFWPMnVnpeh3ItVH2u2A2G5DnvH4mWqVgaSKn/8tmNedcrPXHX6nXhJSjw
8V3UBbXc1A5iDp2euiitHQ==
-----END CERTIFICATE-----
